target datalayout = "e-m:e-p270:32:32-p271:32:32-p272:64:64-i64:64-i128:128-f80:128-n8:16:32:64-S128"
target triple = "x86_64-pc-linux-gnu"

%class.dtPathCorridor = type { [3 x float], [3 x float], ptr, i32, i32 }

@.str.1 = private unnamed_addr constant [153 x i8] c"generated/home/dtcxzyw/WorkSpace/Projects/compilers/llvm-opt-benchmark/bench/recastnavigation/recastnavigation/DetourCrowd/Source/DetourPathCorridor.cpp\00", align 1
@.str.3 = private unnamed_addr constant [7 x i8] c"m_path\00", align 1
@.str.5 = private unnamed_addr constant [9 x i8] c"navquery\00", align 1
@.str.6 = private unnamed_addr constant [7 x i8] c"filter\00", align 1

; Function Attrs: mustprogress nounwind uwtable
define linkonce_odr void @_Z7dtVcopyPfPKf(ptr noundef %0, ptr noundef %1) #1 comdat {
  %3 = alloca ptr, align 8
  %4 = alloca ptr, align 8
  store ptr %0, ptr %3, align 8
  store ptr %1, ptr %4, align 8
  %5 = load ptr, ptr %4, align 8
  %6 = getelementptr inbounds float, ptr %5, i64 0
  %7 = load float, ptr %6, align 4
  %8 = load ptr, ptr %3, align 8
  %9 = getelementptr inbounds float, ptr %8, i64 0
  store float %7, ptr %9, align 4
  %10 = load ptr, ptr %4, align 8
  %11 = getelementptr inbounds float, ptr %10, i64 1
  %12 = load float, ptr %11, align 4
  %13 = load ptr, ptr %3, align 8
  %14 = getelementptr inbounds float, ptr %13, i64 1
  store float %12, ptr %14, align 4
  %15 = load ptr, ptr %4, align 8
  %16 = getelementptr inbounds float, ptr %15, i64 2
  %17 = load float, ptr %16, align 4
  %18 = load ptr, ptr %3, align 8
  %19 = getelementptr inbounds float, ptr %18, i64 2
  store float %17, ptr %19, align 4
  ret void
}

; Function Attrs: mustprogress uwtable
define noundef zeroext i1 @_ZN14dtPathCorridor15trimInvalidPathEjPKfP14dtNavMeshQueryPK13dtQueryFilter(ptr noundef nonnull align 8 dereferenceable(40) %0, i32 noundef %1, ptr noundef %2, ptr noundef %3, ptr noundef %4) #0 align 2 {
  %6 = alloca i1, align 1
  %7 = alloca ptr, align 8
  %8 = alloca i32, align 4
  %9 = alloca ptr, align 8
  %10 = alloca ptr, align 8
  %11 = alloca ptr, align 8
  %12 = alloca ptr, align 8
  %13 = alloca ptr, align 8
  %14 = alloca ptr, align 8
  %15 = alloca i32, align 4
  %16 = alloca [3 x float], align 4
  store ptr %0, ptr %7, align 8
  store i32 %1, ptr %8, align 4
  store ptr %2, ptr %9, align 8
  store ptr %3, ptr %10, align 8
  store ptr %4, ptr %11, align 8
  %17 = load ptr, ptr %7, align 8
  %18 = call noundef ptr @_Z21dtAssertFailGetCustomv()
  store ptr %18, ptr %12, align 8
  %19 = load ptr, ptr %12, align 8
  %20 = icmp eq ptr %19, null
  br i1 %20, label %21, label %22

21:                                               ; preds = %5
  br label %28

22:                                               ; preds = %5
  %23 = load ptr, ptr %10, align 8
  %24 = icmp ne ptr %23, null
  br i1 %24, label %27, label %25

25:                                               ; preds = %22
  %26 = load ptr, ptr %12, align 8
  call void %26(ptr noundef @.str.5, ptr noundef @.str.1, i32 noundef 546)
  br label %27

27:                                               ; preds = %25, %22
  br label %28

28:                                               ; preds = %27, %21
  %29 = call noundef ptr @_Z21dtAssertFailGetCustomv()
  store ptr %29, ptr %13, align 8
  %30 = load ptr, ptr %13, align 8
  %31 = icmp eq ptr %30, null
  br i1 %31, label %32, label %33

32:                                               ; preds = %28
  br label %39

33:                                               ; preds = %28
  %34 = load ptr, ptr %11, align 8
  %35 = icmp ne ptr %34, null
  br i1 %35, label %38, label %36

36:                                               ; preds = %33
  %37 = load ptr, ptr %13, align 8
  call void %37(ptr noundef @.str.6, ptr noundef @.str.1, i32 noundef 547)
  br label %38

38:                                               ; preds = %36, %33
  br label %39

39:                                               ; preds = %38, %32
  %40 = call noundef ptr @_Z21dtAssertFailGetCustomv()
  store ptr %40, ptr %14, align 8
  %41 = load ptr, ptr %14, align 8
  %42 = icmp eq ptr %41, null
  br i1 %42, label %43, label %44

43:                                               ; preds = %39
  br label %51

44:                                               ; preds = %39
  %45 = getelementptr inbounds %class.dtPathCorridor, ptr %17, i32 0, i32 2
  %46 = load ptr, ptr %45, align 8
  %47 = icmp ne ptr %46, null
  br i1 %47, label %50, label %48

48:                                               ; preds = %44
  %49 = load ptr, ptr %14, align 8
  call void %49(ptr noundef @.str.3, ptr noundef @.str.1, i32 noundef 548)
  br label %50

50:                                               ; preds = %48, %44
  br label %51

51:                                               ; preds = %50, %43
  store i32 0, ptr %15, align 4
  br label %52

52:                                               ; preds = %69, %51
  %53 = load i32, ptr %15, align 4
  %54 = getelementptr inbounds %class.dtPathCorridor, ptr %17, i32 0, i32 3
  %55 = load i32, ptr %54, align 8
  %56 = icmp slt i32 %53, %55
  br i1 %56, label %57, label %67

57:                                               ; preds = %52
  %58 = load ptr, ptr %10, align 8
  %59 = getelementptr inbounds %class.dtPathCorridor, ptr %17, i32 0, i32 2
  %60 = load ptr, ptr %59, align 8
  %61 = load i32, ptr %15, align 4
  %62 = sext i32 %61 to i64
  %63 = getelementptr inbounds i32, ptr %60, i64 %62
  %64 = load i32, ptr %63, align 4
  %65 = load ptr, ptr %11, align 8
  %66 = call noundef zeroext i1 @_ZNK14dtNavMeshQuery14isValidPolyRefEjPK13dtQueryFilter(ptr noundef nonnull align 8 dereferenceable(104) %58, i32 noundef %64, ptr noundef %65)
  br label %67

67:                                               ; preds = %57, %52
  %68 = phi i1 [ false, %52 ], [ %66, %57 ]
  br i1 %68, label %69, label %72

69:                                               ; preds = %67
  %70 = load i32, ptr %15, align 4
  %71 = add nsw i32 %70, 1
  store i32 %71, ptr %15, align 4
  br label %52, !llvm.loop !17

72:                                               ; preds = %67
  %73 = load i32, ptr %15, align 4
  %74 = getelementptr inbounds %class.dtPathCorridor, ptr %17, i32 0, i32 3
  %75 = load i32, ptr %74, align 8
  %76 = icmp eq i32 %73, %75
  br i1 %76, label %77, label %78

77:                                               ; preds = %72
  store i1 true, ptr %6, align 1
  br label %111

78:                                               ; preds = %72
  %79 = load i32, ptr %15, align 4
  %80 = icmp eq i32 %79, 0
  br i1 %80, label %81, label %90

81:                                               ; preds = %78
  %82 = getelementptr inbounds %class.dtPathCorridor, ptr %17, i32 0, i32 0
  %83 = getelementptr inbounds [3 x float], ptr %82, i64 0, i64 0
  %84 = load ptr, ptr %9, align 8
  call void @_Z7dtVcopyPfPKf(ptr noundef %83, ptr noundef %84)
  %85 = load i32, ptr %8, align 4
  %86 = getelementptr inbounds %class.dtPathCorridor, ptr %17, i32 0, i32 2
  %87 = load ptr, ptr %86, align 8
  %88 = getelementptr inbounds i32, ptr %87, i64 0
  store i32 %85, ptr %88, align 4
  %89 = getelementptr inbounds %class.dtPathCorridor, ptr %17, i32 0, i32 3
  store i32 1, ptr %89, align 8
  br label %93

90:                                               ; preds = %78
  %91 = load i32, ptr %15, align 4
  %92 = getelementptr inbounds %class.dtPathCorridor, ptr %17, i32 0, i32 3
  store i32 %91, ptr %92, align 8
  br label %93

93:                                               ; preds = %90, %81
  br label %94

94:                                               ; preds = %93
  %95 = getelementptr inbounds [3 x float], ptr %16, i64 0, i64 0
  %96 = getelementptr inbounds %class.dtPathCorridor, ptr %17, i32 0, i32 1
  %97 = getelementptr inbounds [3 x float], ptr %96, i64 0, i64 0
  call void @_Z7dtVcopyPfPKf(ptr noundef %95, ptr noundef %97)
  %98 = load ptr, ptr %10, align 8
  %99 = getelementptr inbounds %class.dtPathCorridor, ptr %17, i32 0, i32 2
  %100 = load ptr, ptr %99, align 8
  %101 = getelementptr inbounds %class.dtPathCorridor, ptr %17, i32 0, i32 3
  %102 = load i32, ptr %101, align 8
  %103 = sub nsw i32 %102, 1
  %104 = sext i32 %103 to i64
  %105 = getelementptr inbounds i32, ptr %100, i64 %104
  %106 = load i32, ptr %105, align 4
  %107 = getelementptr inbounds [3 x float], ptr %16, i64 0, i64 0
  %108 = getelementptr inbounds %class.dtPathCorridor, ptr %17, i32 0, i32 1
  %109 = getelementptr inbounds [3 x float], ptr %108, i64 0, i64 0
  %110 = call noundef i32 @_ZNK14dtNavMeshQuery26closestPointOnPolyBoundaryEjPKfPf(ptr noundef nonnull align 8 dereferenceable(104) %98, i32 noundef %106, ptr noundef %107, ptr noundef %109)
  store i1 true, ptr %6, align 1
  br label %111

111:                                              ; preds = %94, %77
  %112 = load i1, ptr %6, align 1
  ret i1 %112
}