; Function Attrs: mustprogress uwtable
define noundef zeroext i1 @_ZN14dtPathCorridor15trimInvalidPathEjPKfP14dtNavMeshQueryPK13dtQueryFilter(ptr noundef nonnull align 8 dereferenceable(40) %0, i32 noundef %1, ptr noundef readonly captures(none) %2, ptr noundef %3, ptr noundef %4) local_unnamed_addr #2 align 2 {
  %6 = alloca [3 x float], align 4
  %7 = tail call noundef ptr @_Z21dtAssertFailGetCustomv()
  %8 = icmp eq ptr %7, null
  %9 = icmp ne ptr %3, null
  %or.cond = or i1 %9, %8
  br i1 %or.cond, label %11, label %10

10:                                               ; preds = %5
  tail call void %7(ptr noundef nonnull @.str.5, ptr noundef nonnull @.str.1, i32 noundef 546)
  br label %11

11:                                               ; preds = %10, %5
  %12 = tail call noundef ptr @_Z21dtAssertFailGetCustomv()
  %13 = icmp eq ptr %12, null
  %14 = icmp ne ptr %4, null
  %or.cond3 = or i1 %14, %13
  br i1 %or.cond3, label %16, label %15

15:                                               ; preds = %11
  tail call void %12(ptr noundef nonnull @.str.6, ptr noundef nonnull @.str.1, i32 noundef 547)
  br label %16

16:                                               ; preds = %15, %11
  %17 = tail call noundef ptr @_Z21dtAssertFailGetCustomv()
  %18 = icmp ne ptr %17, null
  %19 = getelementptr inbounds nuw i8, ptr %0, i64 24
  %20 = load ptr, ptr %19, align 8
  %.not = icmp eq ptr %20, null
  %or.cond28 = select i1 %18, i1 %.not, i1 false
  br i1 %or.cond28, label %21, label %22

21:                                               ; preds = %16
  tail call void %17(ptr noundef nonnull @.str.3, ptr noundef nonnull @.str.1, i32 noundef 548)
  br label %22

22:                                               ; preds = %21, %16
  %23 = getelementptr inbounds nuw i8, ptr %0, i64 32
  %24 = load i32, ptr %23, align 8
  %25 = icmp sgt i32 %24, 0
  br i1 %25, label %.lr.ph, label %.critedge.thread

.lr.ph:                                           ; preds = %22, %30
  %indvars.iv = phi i64 [ %indvars.iv.next, %30 ], [ 0, %22 ]
  %26 = load ptr, ptr %19, align 8
  %27 = getelementptr inbounds nuw i32, ptr %26, i64 %indvars.iv
  %28 = load i32, ptr %27, align 4
  %29 = tail call noundef zeroext i1 @_ZNK14dtNavMeshQuery14isValidPolyRefEjPK13dtQueryFilter(ptr noundef nonnull align 8 dereferenceable(104) %3, i32 noundef %28, ptr noundef %4)
  %.pre.pre = load i32, ptr %23, align 8
  br i1 %29, label %30, label %.critedge

30:                                               ; preds = %.lr.ph
  %indvars.iv.next = add nuw nsw i64 %indvars.iv, 1
  %31 = sext i32 %.pre.pre to i64
  %32 = icmp slt i64 %indvars.iv.next, %31
  br i1 %32, label %.lr.ph, label %.critedge, !llvm.loop !16

.critedge:                                        ; preds = %.lr.ph, %30
  %.0.lcssa.ph.in = phi i64 [ %indvars.iv, %.lr.ph ], [ %indvars.iv.next, %30 ]
  %.0.lcssa.ph = trunc i64 %.0.lcssa.ph.in to i32
  %33 = icmp eq i32 %.pre.pre, %.0.lcssa.ph
  br i1 %33, label %60, label %35

.critedge.thread:                                 ; preds = %22
  %34 = icmp eq i32 %24, 0
  br i1 %34, label %60, label %.thread

.thread:                                          ; preds = %.critedge.thread
  %.pre3438 = load ptr, ptr %19, align 8
  br label %37

35:                                               ; preds = %.critedge
  %36 = icmp eq i32 %.0.lcssa.ph, 0
  %.pre34 = load ptr, ptr %19, align 8
  br i1 %36, label %37, label %45

37:                                               ; preds = %.thread, %35
  %.pre3439 = phi ptr [ %.pre3438, %.thread ], [ %.pre34, %35 ]
  %38 = load float, ptr %2, align 4
  store float %38, ptr %0, align 8
  %39 = getelementptr inbounds nuw i8, ptr %2, i64 4
  %40 = load float, ptr %39, align 4
  %41 = getelementptr inbounds nuw i8, ptr %0, i64 4
  store float %40, ptr %41, align 4
  %42 = getelementptr inbounds nuw i8, ptr %2, i64 8
  %43 = load float, ptr %42, align 4
  %44 = getelementptr inbounds nuw i8, ptr %0, i64 8
  store float %43, ptr %44, align 8
  store i32 %1, ptr %.pre3439, align 4
  %.pre33 = load ptr, ptr %19, align 8
  br label %45

45:                                               ; preds = %35, %37
  %46 = phi ptr [ %.pre33, %37 ], [ %.pre34, %35 ]
  %storemerge = phi i32 [ 1, %37 ], [ %.0.lcssa.ph, %35 ]
  store i32 %storemerge, ptr %23, align 8
  %47 = getelementptr inbounds nuw i8, ptr %0, i64 12
  %48 = load float, ptr %47, align 4
  store float %48, ptr %6, align 4
  %49 = getelementptr inbounds nuw i8, ptr %0, i64 16
  %50 = load float, ptr %49, align 8
  %51 = getelementptr inbounds nuw i8, ptr %6, i64 4
  store float %50, ptr %51, align 4
  %52 = getelementptr inbounds nuw i8, ptr %0, i64 20
  %53 = load float, ptr %52, align 4
  %54 = getelementptr inbounds nuw i8, ptr %6, i64 8
  store float %53, ptr %54, align 4
  %55 = zext nneg i32 %storemerge to i64
  %56 = getelementptr i32, ptr %46, i64 %55
  %57 = getelementptr i8, ptr %56, i64 -4
  %58 = load i32, ptr %57, align 4
  %59 = call noundef i32 @_ZNK14dtNavMeshQuery26closestPointOnPolyBoundaryEjPKfPf(ptr noundef nonnull align 8 dereferenceable(104) %3, i32 noundef %58, ptr noundef nonnull %6, ptr noundef nonnull %47)
  br label %60

60:                                               ; preds = %.critedge.thread, %.critedge, %45
  ret i1 true
}